target datalayout = "e-m:e-p270:32:32-p271:32:32-p272:64:64-i64:64-i128:128-f80:128-n8:16:32:64-S128"
target triple = "x86_64-pc-linux-gnu"

%struct.Vmem = type { ptr, i64, i64 }
%struct.Expr_ = type { ptr, %union.SourceSpan, i16, %union.anon.29 }
%union.SourceSpan = type { i64 }
%union.anon.29 = type { %struct.ExprAnySwitch }
%struct.ExprAnySwitch = type { i8, %union.anon.31 }
%union.anon.31 = type { %struct.anon.32 }
%struct.anon.32 = type { ptr, %union.SourceSpan, ptr }
%struct.Type_ = type { i32, ptr, ptr, ptr, %union.anon.85, ptr, ptr, %union.anon.87 }
%union.anon.85 = type { ptr }
%union.anon.87 = type { %struct.TypeFunction }
%struct.TypeFunction = type { ptr, ptr, ptr }
%struct.Decl_ = type { ptr, ptr, %union.SourceSpan, i64, %union.anon, i32, %union.anon.0, i64, ptr, ptr, ptr, %union.anon.1 }
%union.anon = type { ptr }
%union.anon.0 = type { i16 }
%union.anon.1 = type { %struct.FuncDecl }
%struct.FuncDecl = type { i32, [4 x i8], %struct.Signature_, i32, i32, %union.anon.8 }
%struct.Signature_ = type <{ %struct.CalleeAttributes, i16, i8, i32, i32, [4 x i8], ptr }>
%struct.CalleeAttributes = type { i8 }
%union.anon.8 = type { %struct.anon.9 }
%struct.anon.9 = type { i16, %union.anon.10 }
%union.anon.10 = type { ptr }
%struct.anon.2 = type { ptr, ptr, %union.anon.3 }
%union.anon.3 = type { %struct.BitStructDecl }
%struct.BitStructDecl = type { ptr, ptr, i8 }
%struct.TypeInfo_ = type { i16, ptr, %union.SourceSpan, %union.anon.56 }
%union.anon.56 = type { %struct.anon.57 }
%struct.anon.57 = type { ptr, ptr }
%struct.ExprCast = type { i8, i32, i32 }

@.str.2 = private unnamed_addr constant [36 x i8] c"FATAL ERROR %s -> in %s @ in %s:%d \00", align 1
@.str.3 = private unnamed_addr constant [22 x i8] c"Should be unreachable\00", align 1
@__func__.type_flatten = private unnamed_addr constant [13 x i8] c"type_flatten\00", align 1
@.str.10 = private unnamed_addr constant [118 x i8] c"generated/home/dtcxzyw/WorkSpace/Projects/compilers/llvm-opt-benchmark/bench/c3c/c3c/src/compiler/compiler_internal.h\00", align 1
@expr_arena = external global %struct.Vmem, align 8

; Function Attrs: nounwind uwtable
define internal ptr @expr_calloc() #0 {
  %1 = call ptr @vmem_alloc(ptr noundef @expr_arena, i64 noundef 56)
  ret ptr %1
}

; Function Attrs: nounwind uwtable
define internal i32 @exprid(ptr noundef %0) #0 {
  %2 = alloca ptr, align 8
  store ptr %0, ptr %2, align 8
  %3 = load ptr, ptr %2, align 8
  %4 = load ptr, ptr @expr_arena, align 8
  %5 = ptrtoint ptr %3 to i64
  %6 = ptrtoint ptr %4 to i64
  %7 = sub i64 %5, %6
  %8 = sdiv exact i64 %7, 56
  %9 = trunc i64 %8 to i32
  ret i32 %9
}

; Function Attrs: nounwind uwtable
define internal ptr @expr_copy(ptr noundef %0) #0 {
  %2 = alloca ptr, align 8
  %3 = alloca ptr, align 8
  store ptr %0, ptr %2, align 8
  %4 = call ptr @expr_calloc()
  store ptr %4, ptr %3, align 8
  %5 = load ptr, ptr %3, align 8
  %6 = load ptr, ptr %2, align 8
  call void @llvm.memcpy.p0.p0.i64(ptr align 8 %5, ptr align 8 %6, i64 56, i1 false)
  %7 = load ptr, ptr %3, align 8
  ret ptr %7
}

; Function Attrs: nounwind uwtable
define internal zeroext i1 @insert_runtime_cast(ptr noundef %0, i32 noundef %1, ptr noundef %2) #0 {
  %4 = alloca ptr, align 8
  %5 = alloca i32, align 4
  %6 = alloca ptr, align 8
  %7 = alloca ptr, align 8
  store ptr %0, ptr %4, align 8
  store i32 %1, ptr %5, align 4
  store ptr %2, ptr %6, align 8
  %8 = load ptr, ptr %4, align 8
  %9 = call ptr @expr_copy(ptr noundef %8)
  store ptr %9, ptr %7, align 8
  %10 = load ptr, ptr %4, align 8
  %11 = getelementptr inbounds %struct.Expr_, ptr %10, i32 0, i32 2
  %12 = load i16, ptr %11, align 8
  %13 = and i16 %12, -256
  %14 = or i16 %13, 9
  store i16 %14, ptr %11, align 8
  %15 = load i32, ptr %5, align 4
  %16 = load ptr, ptr %4, align 8
  %17 = getelementptr inbounds %struct.Expr_, ptr %16, i32 0, i32 3
  %18 = trunc i32 %15 to i8
  store i8 %18, ptr %17, align 8
  %19 = load ptr, ptr %7, align 8
  %20 = call i32 @exprid(ptr noundef %19)
  %21 = load ptr, ptr %4, align 8
  %22 = getelementptr inbounds %struct.Expr_, ptr %21, i32 0, i32 3
  %23 = getelementptr inbounds %struct.ExprCast, ptr %22, i32 0, i32 1
  store i32 %20, ptr %23, align 4
  %24 = load ptr, ptr %4, align 8
  %25 = getelementptr inbounds %struct.Expr_, ptr %24, i32 0, i32 3
  %26 = getelementptr inbounds %struct.ExprCast, ptr %25, i32 0, i32 2
  store i32 0, ptr %26, align 8
  %27 = load ptr, ptr %6, align 8
  %28 = load ptr, ptr %4, align 8
  %29 = getelementptr inbounds %struct.Expr_, ptr %28, i32 0, i32 0
  store ptr %27, ptr %29, align 8
  ret i1 true
}

; Function Attrs: nounwind uwtable
define internal ptr @type_flatten(ptr noundef %0) #0 {
  %2 = alloca ptr, align 8
  store ptr %0, ptr %2, align 8
  br label %3

3:                                                ; preds = %28, %1
  %4 = load ptr, ptr %2, align 8
  %5 = getelementptr inbounds %struct.Type_, ptr %4, i32 0, i32 1
  %6 = load ptr, ptr %5, align 8
  store ptr %6, ptr %2, align 8
  %7 = load ptr, ptr %2, align 8
  %8 = getelementptr inbounds %struct.Type_, ptr %7, i32 0, i32 0
  %9 = load i32, ptr %8, align 8
  switch i32 %9, label %26 [
    i32 32, label %10
    i32 40, label %19
    i32 31, label %23
  ]

10:                                               ; preds = %3
  %11 = load ptr, ptr %2, align 8
  %12 = getelementptr inbounds %struct.Type_, ptr %11, i32 0, i32 7
  %13 = load ptr, ptr %12, align 8
  %14 = getelementptr inbounds %struct.Decl_, ptr %13, i32 0, i32 11
  %15 = getelementptr inbounds %struct.anon.2, ptr %14, i32 0, i32 2
  %16 = load ptr, ptr %15, align 8
  %17 = getelementptr inbounds %struct.TypeInfo_, ptr %16, i32 0, i32 1
  %18 = load ptr, ptr %17, align 8
  store ptr %18, ptr %2, align 8
  br label %28

19:                                               ; preds = %3
  %20 = load ptr, ptr %2, align 8
  %21 = getelementptr inbounds %struct.Type_, ptr %20, i32 0, i32 7
  %22 = load ptr, ptr %21, align 8
  store ptr %22, ptr %2, align 8
  br label %28

23:                                               ; preds = %3
  br label %24

24:                                               ; preds = %23
  call void (ptr, ...) @error_exit(ptr noundef @.str.2, ptr noundef @.str.3, ptr noundef @__func__.type_flatten, ptr noundef @.str.10, i32 noundef 2984) #6
  unreachable

25:                                               ; No predecessors!
  br label %26

26:                                               ; preds = %25, %3
  %27 = load ptr, ptr %2, align 8
  ret ptr %27

28:                                               ; preds = %19, %10
  br label %3
}

; Function Attrs: nounwind uwtable
define internal ptr @exprptr(i32 noundef %0) #0 {
  %2 = alloca i32, align 4
  store i32 %0, ptr %2, align 4
  %3 = load ptr, ptr @expr_arena, align 8
  %4 = load i32, ptr %2, align 4
  %5 = zext i32 %4 to i64
  %6 = getelementptr inbounds %struct.Expr_, ptr %3, i64 %5
  ret ptr %6
}

; Function Attrs: nounwind uwtable
define internal void @cast_int_arr_to_bitstruct(ptr noundef %0, ptr noundef %1, ptr noundef %2) #0 {
  %4 = alloca ptr, align 8
  %5 = alloca ptr, align 8
  %6 = alloca %union.SourceSpan, align 8
  %7 = alloca ptr, align 8
  %8 = alloca ptr, align 8
  %9 = alloca ptr, align 8
  %10 = alloca ptr, align 8
  store ptr %0, ptr %7, align 8
  store ptr %1, ptr %8, align 8
  store ptr %2, ptr %9, align 8
  %11 = load ptr, ptr %8, align 8
  %12 = getelementptr inbounds %struct.Expr_, ptr %11, i32 0, i32 2
  %13 = load i16, ptr %12, align 8
  %14 = and i16 %13, 255
  %15 = zext i16 %14 to i32
  %16 = icmp eq i32 %15, 9
  br i1 %16, label %17, label %49

17:                                               ; preds = %3
  %18 = load ptr, ptr %8, align 8
  %19 = getelementptr inbounds %struct.Expr_, ptr %18, i32 0, i32 3
  %20 = load i8, ptr %19, align 8
  %21 = zext i8 %20 to i32
  %22 = icmp eq i32 %21, 8
  br i1 %22, label %23, label %49

23:                                               ; preds = %17
  %24 = load ptr, ptr %8, align 8
  %25 = getelementptr inbounds %struct.Expr_, ptr %24, i32 0, i32 3
  %26 = getelementptr inbounds %struct.ExprCast, ptr %25, i32 0, i32 1
  %27 = load i32, ptr %26, align 4
  %28 = call ptr @exprptr(i32 noundef %27)
  store ptr %28, ptr %10, align 8
  %29 = load ptr, ptr %10, align 8
  %30 = getelementptr inbounds %struct.Expr_, ptr %29, i32 0, i32 0
  %31 = load ptr, ptr %30, align 8
  %32 = call ptr @type_flatten(ptr noundef %31)
  %33 = load ptr, ptr %9, align 8
  %34 = call ptr @type_flatten(ptr noundef %33)
  %35 = icmp eq ptr %32, %34
  br i1 %35, label %36, label %48

36:                                               ; preds = %23
  %37 = load ptr, ptr %8, align 8
  %38 = load ptr, ptr %10, align 8
  store ptr %37, ptr %4, align 8
  store ptr %38, ptr %5, align 8
  %39 = load ptr, ptr %4, align 8
  %40 = getelementptr inbounds %struct.Expr_, ptr %39, i32 0, i32 1
  call void @llvm.memcpy.p0.p0.i64(ptr align 8 %6, ptr align 8 %40, i64 8, i1 false)
  %41 = load ptr, ptr %4, align 8
  %42 = load ptr, ptr %5, align 8
  call void @llvm.memcpy.p0.p0.i64(ptr align 8 %41, ptr align 8 %42, i64 56, i1 false)
  %43 = load ptr, ptr %4, align 8
  %44 = getelementptr inbounds %struct.Expr_, ptr %43, i32 0, i32 1
  call void @llvm.memcpy.p0.p0.i64(ptr align 8 %44, ptr align 8 %6, i64 8, i1 false)
  %45 = load ptr, ptr %9, align 8
  %46 = load ptr, ptr %8, align 8
  %47 = getelementptr inbounds %struct.Expr_, ptr %46, i32 0, i32 0
  store ptr %45, ptr %47, align 8
  br label %53

48:                                               ; preds = %23
  br label %49

49:                                               ; preds = %48, %17, %3
  %50 = load ptr, ptr %8, align 8
  %51 = load ptr, ptr %9, align 8
  %52 = call zeroext i1 @insert_runtime_cast(ptr noundef %50, i32 noundef 9, ptr noundef %51)
  br label %53

53:                                               ; preds = %49, %36
  ret void
}