; Function Attrs: nounwind uwtable
define internal void @cast_int_arr_to_bitstruct(ptr nocapture readnone %0, ptr nocapture noundef %1, ptr noundef %2) #0 {
  %4 = getelementptr inbounds i8, ptr %1, i64 16
  %5 = load i16, ptr %4, align 8
  %6 = and i16 %5, 255
  %7 = icmp eq i16 %6, 9
  br i1 %7, label %8, label %47

8:                                                ; preds = %3
  %9 = getelementptr inbounds i8, ptr %1, i64 24
  %10 = load i8, ptr %9, align 8
  %11 = icmp eq i8 %10, 8
  br i1 %11, label %12, label %47

12:                                               ; preds = %8
  %13 = getelementptr inbounds i8, ptr %1, i64 28
  %14 = load i32, ptr %13, align 4
  %15 = load ptr, ptr @expr_arena, align 8
  %16 = zext i32 %14 to i64
  %17 = getelementptr inbounds %struct.Expr_, ptr %15, i64 %16
  br label %18

18:                                               ; preds = %.backedge, %12
  %.0.i.in = phi ptr [ %17, %12 ], [ %.0.i.in.be, %.backedge ]
  %.0.i = load ptr, ptr %.0.i.in, align 8
  %19 = getelementptr inbounds i8, ptr %.0.i, i64 8
  %20 = load ptr, ptr %19, align 8
  %21 = load i32, ptr %20, align 8
  switch i32 %21, label %type_flatten.exit [
    i32 32, label %22
    i32 40, label %28
    i32 31, label %30
  ]

22:                                               ; preds = %18
  %23 = getelementptr inbounds i8, ptr %20, i64 56
  %24 = load ptr, ptr %23, align 8
  %25 = getelementptr inbounds i8, ptr %24, i64 96
  %26 = load ptr, ptr %25, align 8
  %27 = getelementptr inbounds i8, ptr %26, i64 8
  br label %.backedge

28:                                               ; preds = %18
  %29 = getelementptr inbounds i8, ptr %20, i64 56
  br label %.backedge

.backedge:                                        ; preds = %28, %22
  %.0.i.in.be = phi ptr [ %29, %28 ], [ %27, %22 ]
  br label %18

30:                                               ; preds = %18
  tail call void (ptr, ...) @error_exit(ptr noundef nonnull @.str.2, ptr noundef nonnull @.str.3, ptr noundef nonnull @__func__.type_flatten, ptr noundef nonnull @.str.10, i32 noundef 2984) #11
  unreachable

type_flatten.exit:                                ; preds = %18, %43
  %.0.i16 = phi ptr [ %.1.i18, %43 ], [ %2, %18 ]
  %31 = getelementptr inbounds i8, ptr %.0.i16, i64 8
  %32 = load ptr, ptr %31, align 8
  %33 = load i32, ptr %32, align 8
  switch i32 %33, label %type_flatten.exit19 [
    i32 32, label %34
    i32 40, label %40
    i32 31, label %42
  ]

34:                                               ; preds = %type_flatten.exit
  %35 = getelementptr inbounds i8, ptr %32, i64 56
  %36 = load ptr, ptr %35, align 8
  %37 = getelementptr inbounds i8, ptr %36, i64 96
  %38 = load ptr, ptr %37, align 8
  %39 = getelementptr inbounds i8, ptr %38, i64 8
  br label %43

40:                                               ; preds = %type_flatten.exit
  %41 = getelementptr inbounds i8, ptr %32, i64 56
  br label %43

42:                                               ; preds = %type_flatten.exit
  tail call void (ptr, ...) @error_exit(ptr noundef nonnull @.str.2, ptr noundef nonnull @.str.3, ptr noundef nonnull @__func__.type_flatten, ptr noundef nonnull @.str.10, i32 noundef 2984) #11
  unreachable

43:                                               ; preds = %40, %34
  %.1.in.i17 = phi ptr [ %41, %40 ], [ %39, %34 ]
  %.1.i18 = load ptr, ptr %.1.in.i17, align 8
  br label %type_flatten.exit

type_flatten.exit19:                              ; preds = %type_flatten.exit
  %44 = icmp eq ptr %20, %32
  br i1 %44, label %45, label %47

45:                                               ; preds = %type_flatten.exit19
  %46 = getelementptr inbounds i8, ptr %1, i64 8
  %.sroa.0.0.copyload = load i64, ptr %46, align 8
  tail call void @llvm.memcpy.p0.p0.i64(ptr noundef nonnull align 8 dereferenceable(56) %1, ptr noundef nonnull align 8 dereferenceable(56) %17, i64 56, i1 false)
  store i64 %.sroa.0.0.copyload, ptr %46, align 8
  br label %61

47:                                               ; preds = %type_flatten.exit19, %8, %3
  %48 = tail call noundef ptr @vmem_alloc(ptr noundef nonnull @expr_arena, i64 noundef 56) #10
  tail call void @llvm.memcpy.p0.p0.i64(ptr noundef nonnull align 8 dereferenceable(56) %48, ptr noundef nonnull align 8 dereferenceable(56) %1, i64 56, i1 false)
  %49 = load i16, ptr %4, align 8
  %50 = and i16 %49, -256
  %51 = or disjoint i16 %50, 9
  store i16 %51, ptr %4, align 8
  %52 = getelementptr inbounds i8, ptr %1, i64 24
  store i8 9, ptr %52, align 8
  %53 = load ptr, ptr @expr_arena, align 8
  %54 = ptrtoint ptr %48 to i64
  %55 = ptrtoint ptr %53 to i64
  %56 = sub i64 %54, %55
  %57 = sdiv exact i64 %56, 56
  %58 = trunc i64 %57 to i32
  %59 = getelementptr inbounds i8, ptr %1, i64 28
  store i32 %58, ptr %59, align 4
  %60 = getelementptr inbounds i8, ptr %1, i64 32
  store i32 0, ptr %60, align 8
  br label %61

61:                                               ; preds = %47, %45
  store ptr %2, ptr %1, align 8
  ret void
}